c__builtin__
set
p0
((lp1
VMore Mayhem
p2
a((I1
VPulling the Rug
p3
tp4
(I2
VPsycho
p5
tp6
(I3
VMayhem
p7
tp8
(I4
VKentish Town Waltz
p9
tp10
tp11
aV2011
p12
aVImelda May
p13
atp14
Rp15
.(lp0
I0
aI2
aI4
aI6
aI8
a.(lp0
I1
aI3
aI5
aI7
aI9
a.I2998302
.